target datalayout = "e-m:e-p270:32:32-p271:32:32-p272:64:64-i64:64-i128:128-f80:128-n8:16:32:64-S128"
target triple = "x86_64-pc-linux-gnu"

; Function Attrs: nounwind uwtable
define i64 @PaUtil_SelectClosestAvailableFormat(i64 noundef %0, i64 noundef %1) #0 {
  %3 = alloca i64, align 8
  %4 = alloca i64, align 8
  %5 = alloca i64, align 8
  store i64 %0, ptr %3, align 8, !tbaa !3
  store i64 %1, ptr %4, align 8, !tbaa !3
  call void @llvm.lifetime.start.p0(i64 8, ptr %5) #4
  %6 = load i64, ptr %4, align 8, !tbaa !3
  %7 = and i64 %6, -2147483649
  store i64 %7, ptr %4, align 8, !tbaa !3
  %8 = load i64, ptr %3, align 8, !tbaa !3
  %9 = and i64 %8, -2147483649
  store i64 %9, ptr %3, align 8, !tbaa !3
  %10 = load i64, ptr %4, align 8, !tbaa !3
  %11 = load i64, ptr %3, align 8, !tbaa !3
  %12 = and i64 %10, %11
  %13 = icmp eq i64 %12, 0
  br i1 %13, label %14, label %60

14:                                               ; preds = %2
  %15 = load i64, ptr %4, align 8, !tbaa !3
  %16 = icmp ne i64 %15, 1
  br i1 %16, label %17, label %33

17:                                               ; preds = %14
  %18 = load i64, ptr %4, align 8, !tbaa !3
  store i64 %18, ptr %5, align 8, !tbaa !3
  br label %19

19:                                               ; preds = %30, %17
  %20 = load i64, ptr %5, align 8, !tbaa !3
  %21 = lshr i64 %20, 1
  store i64 %21, ptr %5, align 8, !tbaa !3
  br label %22

22:                                               ; preds = %19
  %23 = load i64, ptr %5, align 8, !tbaa !3
  %24 = load i64, ptr %3, align 8, !tbaa !3
  %25 = and i64 %23, %24
  %26 = icmp eq i64 %25, 0
  br i1 %26, label %27, label %30

27:                                               ; preds = %22
  %28 = load i64, ptr %5, align 8, !tbaa !3
  %29 = icmp ne i64 %28, 0
  br label %30

30:                                               ; preds = %27, %22
  %31 = phi i1 [ false, %22 ], [ %29, %27 ]
  br i1 %31, label %19, label %32, !llvm.loop !7

32:                                               ; preds = %30
  br label %34

33:                                               ; preds = %14
  store i64 0, ptr %5, align 8, !tbaa !3
  br label %34

34:                                               ; preds = %33, %32
  %35 = load i64, ptr %5, align 8, !tbaa !3
  %36 = icmp eq i64 %35, 0
  br i1 %36, label %37, label %59

37:                                               ; preds = %34
  %38 = load i64, ptr %4, align 8, !tbaa !3
  store i64 %38, ptr %5, align 8, !tbaa !3
  br label %39

39:                                               ; preds = %50, %37
  %40 = load i64, ptr %5, align 8, !tbaa !3
  %41 = shl i64 %40, 1
  store i64 %41, ptr %5, align 8, !tbaa !3
  br label %42

42:                                               ; preds = %39
  %43 = load i64, ptr %5, align 8, !tbaa !3
  %44 = load i64, ptr %3, align 8, !tbaa !3
  %45 = and i64 %43, %44
  %46 = icmp eq i64 %45, 0
  br i1 %46, label %47, label %50

47:                                               ; preds = %42
  %48 = load i64, ptr %5, align 8, !tbaa !3
  %49 = icmp ne i64 %48, 65536
  br label %50

50:                                               ; preds = %47, %42
  %51 = phi i1 [ false, %42 ], [ %49, %47 ]
  br i1 %51, label %39, label %52, !llvm.loop !9

52:                                               ; preds = %50
  %53 = load i64, ptr %5, align 8, !tbaa !3
  %54 = load i64, ptr %3, align 8, !tbaa !3
  %55 = and i64 %53, %54
  %56 = icmp eq i64 %55, 0
  br i1 %56, label %57, label %58

57:                                               ; preds = %52
  store i64 -9994, ptr %5, align 8, !tbaa !3
  br label %58

58:                                               ; preds = %57, %52
  br label %59

59:                                               ; preds = %58, %34
  br label %62

60:                                               ; preds = %2
  %61 = load i64, ptr %4, align 8, !tbaa !3
  store i64 %61, ptr %5, align 8, !tbaa !3
  br label %62

62:                                               ; preds = %60, %59
  %63 = load i64, ptr %5, align 8, !tbaa !3
  call void @llvm.lifetime.end.p0(i64 8, ptr %5) #4
  ret i64 %63
}