; Function Attrs: nofree norecurse nosync nounwind memory(none) uwtable
define range(i64 0, -1) i64 @PaUtil_SelectClosestAvailableFormat(i64 noundef %0, i64 noundef %1) local_unnamed_addr #0 {
  %3 = and i64 %1, -2147483649
  %4 = and i64 %0, -2147483649
  %5 = and i64 %1, %4
  %6 = icmp eq i64 %5, 0
  br i1 %6, label %7, label %20

7:                                                ; preds = %2
  %.not = icmp eq i64 %3, 1
  br i1 %.not, label %.preheader.preheader, label %.preheader21

.preheader21:                                     ; preds = %7, %.preheader21
  %.0 = phi i64 [ %8, %.preheader21 ], [ %3, %7 ]
  %8 = lshr i64 %.0, 1
  %9 = and i64 %8, %4
  %10 = icmp eq i64 %9, 0
  %11 = icmp ugt i64 %.0, 1
  %12 = and i1 %11, %10
  br i1 %12, label %.preheader21, label %.loopexit, !llvm.loop !3

.loopexit:                                        ; preds = %.preheader21
  %13 = icmp ult i64 %.0, 2
  br i1 %13, label %.preheader.preheader, label %20

.preheader.preheader:                             ; preds = %7, %.loopexit
  br label %.preheader

.preheader:                                       ; preds = %.preheader.preheader, %.preheader
  %.2 = phi i64 [ %14, %.preheader ], [ %3, %.preheader.preheader ]
  %14 = shl i64 %.2, 1
  %15 = and i64 %14, %4
  %16 = icmp eq i64 %15, 0
  %17 = icmp ne i64 %14, 65536
  %18 = and i1 %17, %16
  br i1 %18, label %.preheader, label %19, !llvm.loop !5

19:                                               ; preds = %.preheader
  %spec.store.select = select i1 %16, i64 -9994, i64 %14
  br label %20

20:                                               ; preds = %2, %.loopexit, %19
  %.3 = phi i64 [ %spec.store.select, %19 ], [ %8, %.loopexit ], [ %3, %2 ]
  ret i64 %.3
}